
int_trmp.o:     file format elf32-sh


Disassembly of section .text:

00000000 <___interrupt_handler0>:
   0:	e0 00       	mov	#0,r0
   2:	a2 fd       	bra	600 <___trampoline>
   4:	40 08       	shll2	r0

00000006 <___interrupt_handler1>:
   6:	e0 01       	mov	#1,r0
   8:	a2 fa       	bra	600 <___trampoline>
   a:	40 08       	shll2	r0

0000000c <___interrupt_handler2>:
   c:	e0 02       	mov	#2,r0
   e:	a2 f7       	bra	600 <___trampoline>
  10:	40 08       	shll2	r0

00000012 <___interrupt_handler3>:
  12:	e0 03       	mov	#3,r0
  14:	a2 f4       	bra	600 <___trampoline>
  16:	40 08       	shll2	r0

00000018 <___interrupt_handler4>:
  18:	e0 04       	mov	#4,r0
  1a:	a2 f1       	bra	600 <___trampoline>
  1c:	40 08       	shll2	r0

0000001e <___interrupt_handler5>:
  1e:	e0 05       	mov	#5,r0
  20:	a2 ee       	bra	600 <___trampoline>
  22:	40 08       	shll2	r0

00000024 <___interrupt_handler6>:
  24:	e0 06       	mov	#6,r0
  26:	a2 eb       	bra	600 <___trampoline>
  28:	40 08       	shll2	r0

0000002a <___interrupt_handler7>:
  2a:	e0 07       	mov	#7,r0
  2c:	a2 e8       	bra	600 <___trampoline>
  2e:	40 08       	shll2	r0

00000030 <___interrupt_handler8>:
  30:	e0 08       	mov	#8,r0
  32:	a2 e5       	bra	600 <___trampoline>
  34:	40 08       	shll2	r0

00000036 <___interrupt_handler9>:
  36:	e0 09       	mov	#9,r0
  38:	a2 e2       	bra	600 <___trampoline>
  3a:	40 08       	shll2	r0

0000003c <___interrupt_handler10>:
  3c:	e0 0a       	mov	#10,r0
  3e:	a2 df       	bra	600 <___trampoline>
  40:	40 08       	shll2	r0

00000042 <___interrupt_handler11>:
  42:	e0 0b       	mov	#11,r0
  44:	a2 dc       	bra	600 <___trampoline>
  46:	40 08       	shll2	r0

00000048 <___interrupt_handler12>:
  48:	e0 0c       	mov	#12,r0
  4a:	a2 d9       	bra	600 <___trampoline>
  4c:	40 08       	shll2	r0

0000004e <___interrupt_handler13>:
  4e:	e0 0d       	mov	#13,r0
  50:	a2 d6       	bra	600 <___trampoline>
  52:	40 08       	shll2	r0

00000054 <___interrupt_handler14>:
  54:	e0 0e       	mov	#14,r0
  56:	a2 d3       	bra	600 <___trampoline>
  58:	40 08       	shll2	r0

0000005a <___interrupt_handler15>:
  5a:	e0 0f       	mov	#15,r0
  5c:	a2 d0       	bra	600 <___trampoline>
  5e:	40 08       	shll2	r0

00000060 <___interrupt_handler16>:
  60:	e0 10       	mov	#16,r0
  62:	a2 cd       	bra	600 <___trampoline>
  64:	40 08       	shll2	r0

00000066 <___interrupt_handler17>:
  66:	e0 11       	mov	#17,r0
  68:	a2 ca       	bra	600 <___trampoline>
  6a:	40 08       	shll2	r0

0000006c <___interrupt_handler18>:
  6c:	e0 12       	mov	#18,r0
  6e:	a2 c7       	bra	600 <___trampoline>
  70:	40 08       	shll2	r0

00000072 <___interrupt_handler19>:
  72:	e0 13       	mov	#19,r0
  74:	a2 c4       	bra	600 <___trampoline>
  76:	40 08       	shll2	r0

00000078 <___interrupt_handler20>:
  78:	e0 14       	mov	#20,r0
  7a:	a2 c1       	bra	600 <___trampoline>
  7c:	40 08       	shll2	r0

0000007e <___interrupt_handler21>:
  7e:	e0 15       	mov	#21,r0
  80:	a2 be       	bra	600 <___trampoline>
  82:	40 08       	shll2	r0

00000084 <___interrupt_handler22>:
  84:	e0 16       	mov	#22,r0
  86:	a2 bb       	bra	600 <___trampoline>
  88:	40 08       	shll2	r0

0000008a <___interrupt_handler23>:
  8a:	e0 17       	mov	#23,r0
  8c:	a2 b8       	bra	600 <___trampoline>
  8e:	40 08       	shll2	r0

00000090 <___interrupt_handler24>:
  90:	e0 18       	mov	#24,r0
  92:	a2 b5       	bra	600 <___trampoline>
  94:	40 08       	shll2	r0

00000096 <___interrupt_handler25>:
  96:	e0 19       	mov	#25,r0
  98:	a2 b2       	bra	600 <___trampoline>
  9a:	40 08       	shll2	r0

0000009c <___interrupt_handler26>:
  9c:	e0 1a       	mov	#26,r0
  9e:	a2 af       	bra	600 <___trampoline>
  a0:	40 08       	shll2	r0

000000a2 <___interrupt_handler27>:
  a2:	e0 1b       	mov	#27,r0
  a4:	a2 ac       	bra	600 <___trampoline>
  a6:	40 08       	shll2	r0

000000a8 <___interrupt_handler28>:
  a8:	e0 1c       	mov	#28,r0
  aa:	a2 a9       	bra	600 <___trampoline>
  ac:	40 08       	shll2	r0

000000ae <___interrupt_handler29>:
  ae:	e0 1d       	mov	#29,r0
  b0:	a2 a6       	bra	600 <___trampoline>
  b2:	40 08       	shll2	r0

000000b4 <___interrupt_handler30>:
  b4:	e0 1e       	mov	#30,r0
  b6:	a2 a3       	bra	600 <___trampoline>
  b8:	40 08       	shll2	r0

000000ba <___interrupt_handler31>:
  ba:	e0 1f       	mov	#31,r0
  bc:	a2 a0       	bra	600 <___trampoline>
  be:	40 08       	shll2	r0

000000c0 <___interrupt_handler32>:
  c0:	e0 20       	mov	#32,r0
  c2:	a2 9d       	bra	600 <___trampoline>
  c4:	40 08       	shll2	r0

000000c6 <___interrupt_handler33>:
  c6:	e0 21       	mov	#33,r0
  c8:	a2 9a       	bra	600 <___trampoline>
  ca:	40 08       	shll2	r0

000000cc <___interrupt_handler34>:
  cc:	e0 22       	mov	#34,r0
  ce:	a2 97       	bra	600 <___trampoline>
  d0:	40 08       	shll2	r0

000000d2 <___interrupt_handler35>:
  d2:	e0 23       	mov	#35,r0
  d4:	a2 94       	bra	600 <___trampoline>
  d6:	40 08       	shll2	r0

000000d8 <___interrupt_handler36>:
  d8:	e0 24       	mov	#36,r0
  da:	a2 91       	bra	600 <___trampoline>
  dc:	40 08       	shll2	r0

000000de <___interrupt_handler37>:
  de:	e0 25       	mov	#37,r0
  e0:	a2 8e       	bra	600 <___trampoline>
  e2:	40 08       	shll2	r0

000000e4 <___interrupt_handler38>:
  e4:	e0 26       	mov	#38,r0
  e6:	a2 8b       	bra	600 <___trampoline>
  e8:	40 08       	shll2	r0

000000ea <___interrupt_handler39>:
  ea:	e0 27       	mov	#39,r0
  ec:	a2 88       	bra	600 <___trampoline>
  ee:	40 08       	shll2	r0

000000f0 <___interrupt_handler40>:
  f0:	e0 28       	mov	#40,r0
  f2:	a2 85       	bra	600 <___trampoline>
  f4:	40 08       	shll2	r0

000000f6 <___interrupt_handler41>:
  f6:	e0 29       	mov	#41,r0
  f8:	a2 82       	bra	600 <___trampoline>
  fa:	40 08       	shll2	r0

000000fc <___interrupt_handler42>:
  fc:	e0 2a       	mov	#42,r0
  fe:	a2 7f       	bra	600 <___trampoline>
 100:	40 08       	shll2	r0

00000102 <___interrupt_handler43>:
 102:	e0 2b       	mov	#43,r0
 104:	a2 7c       	bra	600 <___trampoline>
 106:	40 08       	shll2	r0

00000108 <___interrupt_handler44>:
 108:	e0 2c       	mov	#44,r0
 10a:	a2 79       	bra	600 <___trampoline>
 10c:	40 08       	shll2	r0

0000010e <___interrupt_handler45>:
 10e:	e0 2d       	mov	#45,r0
 110:	a2 76       	bra	600 <___trampoline>
 112:	40 08       	shll2	r0

00000114 <___interrupt_handler46>:
 114:	e0 2e       	mov	#46,r0
 116:	a2 73       	bra	600 <___trampoline>
 118:	40 08       	shll2	r0

0000011a <___interrupt_handler47>:
 11a:	e0 2f       	mov	#47,r0
 11c:	a2 70       	bra	600 <___trampoline>
 11e:	40 08       	shll2	r0

00000120 <___interrupt_handler48>:
 120:	e0 30       	mov	#48,r0
 122:	a2 6d       	bra	600 <___trampoline>
 124:	40 08       	shll2	r0

00000126 <___interrupt_handler49>:
 126:	e0 31       	mov	#49,r0
 128:	a2 6a       	bra	600 <___trampoline>
 12a:	40 08       	shll2	r0

0000012c <___interrupt_handler50>:
 12c:	e0 32       	mov	#50,r0
 12e:	a2 67       	bra	600 <___trampoline>
 130:	40 08       	shll2	r0

00000132 <___interrupt_handler51>:
 132:	e0 33       	mov	#51,r0
 134:	a2 64       	bra	600 <___trampoline>
 136:	40 08       	shll2	r0

00000138 <___interrupt_handler52>:
 138:	e0 34       	mov	#52,r0
 13a:	a2 61       	bra	600 <___trampoline>
 13c:	40 08       	shll2	r0

0000013e <___interrupt_handler53>:
 13e:	e0 35       	mov	#53,r0
 140:	a2 5e       	bra	600 <___trampoline>
 142:	40 08       	shll2	r0

00000144 <___interrupt_handler54>:
 144:	e0 36       	mov	#54,r0
 146:	a2 5b       	bra	600 <___trampoline>
 148:	40 08       	shll2	r0

0000014a <___interrupt_handler55>:
 14a:	e0 37       	mov	#55,r0
 14c:	a2 58       	bra	600 <___trampoline>
 14e:	40 08       	shll2	r0

00000150 <___interrupt_handler56>:
 150:	e0 38       	mov	#56,r0
 152:	a2 55       	bra	600 <___trampoline>
 154:	40 08       	shll2	r0

00000156 <___interrupt_handler57>:
 156:	e0 39       	mov	#57,r0
 158:	a2 52       	bra	600 <___trampoline>
 15a:	40 08       	shll2	r0

0000015c <___interrupt_handler58>:
 15c:	e0 3a       	mov	#58,r0
 15e:	a2 4f       	bra	600 <___trampoline>
 160:	40 08       	shll2	r0

00000162 <___interrupt_handler59>:
 162:	e0 3b       	mov	#59,r0
 164:	a2 4c       	bra	600 <___trampoline>
 166:	40 08       	shll2	r0

00000168 <___interrupt_handler60>:
 168:	e0 3c       	mov	#60,r0
 16a:	a2 49       	bra	600 <___trampoline>
 16c:	40 08       	shll2	r0

0000016e <___interrupt_handler61>:
 16e:	e0 3d       	mov	#61,r0
 170:	a2 46       	bra	600 <___trampoline>
 172:	40 08       	shll2	r0

00000174 <___interrupt_handler62>:
 174:	e0 3e       	mov	#62,r0
 176:	a2 43       	bra	600 <___trampoline>
 178:	40 08       	shll2	r0

0000017a <___interrupt_handler63>:
 17a:	e0 3f       	mov	#63,r0
 17c:	a2 40       	bra	600 <___trampoline>
 17e:	40 08       	shll2	r0

00000180 <___interrupt_handler64>:
 180:	e0 40       	mov	#64,r0
 182:	a2 3d       	bra	600 <___trampoline>
 184:	40 08       	shll2	r0

00000186 <___interrupt_handler65>:
 186:	e0 41       	mov	#65,r0
 188:	a2 3a       	bra	600 <___trampoline>
 18a:	40 08       	shll2	r0

0000018c <___interrupt_handler66>:
 18c:	e0 42       	mov	#66,r0
 18e:	a2 37       	bra	600 <___trampoline>
 190:	40 08       	shll2	r0

00000192 <___interrupt_handler67>:
 192:	e0 43       	mov	#67,r0
 194:	a2 34       	bra	600 <___trampoline>
 196:	40 08       	shll2	r0

00000198 <___interrupt_handler68>:
 198:	e0 44       	mov	#68,r0
 19a:	a2 31       	bra	600 <___trampoline>
 19c:	40 08       	shll2	r0

0000019e <___interrupt_handler69>:
 19e:	e0 45       	mov	#69,r0
 1a0:	a2 2e       	bra	600 <___trampoline>
 1a2:	40 08       	shll2	r0

000001a4 <___interrupt_handler70>:
 1a4:	e0 46       	mov	#70,r0
 1a6:	a2 2b       	bra	600 <___trampoline>
 1a8:	40 08       	shll2	r0

000001aa <___interrupt_handler71>:
 1aa:	e0 47       	mov	#71,r0
 1ac:	a2 28       	bra	600 <___trampoline>
 1ae:	40 08       	shll2	r0

000001b0 <___interrupt_handler72>:
 1b0:	e0 48       	mov	#72,r0
 1b2:	a2 25       	bra	600 <___trampoline>
 1b4:	40 08       	shll2	r0

000001b6 <___interrupt_handler73>:
 1b6:	e0 49       	mov	#73,r0
 1b8:	a2 22       	bra	600 <___trampoline>
 1ba:	40 08       	shll2	r0

000001bc <___interrupt_handler74>:
 1bc:	e0 4a       	mov	#74,r0
 1be:	a2 1f       	bra	600 <___trampoline>
 1c0:	40 08       	shll2	r0

000001c2 <___interrupt_handler75>:
 1c2:	e0 4b       	mov	#75,r0
 1c4:	a2 1c       	bra	600 <___trampoline>
 1c6:	40 08       	shll2	r0

000001c8 <___interrupt_handler76>:
 1c8:	e0 4c       	mov	#76,r0
 1ca:	a2 19       	bra	600 <___trampoline>
 1cc:	40 08       	shll2	r0

000001ce <___interrupt_handler77>:
 1ce:	e0 4d       	mov	#77,r0
 1d0:	a2 16       	bra	600 <___trampoline>
 1d2:	40 08       	shll2	r0

000001d4 <___interrupt_handler78>:
 1d4:	e0 4e       	mov	#78,r0
 1d6:	a2 13       	bra	600 <___trampoline>
 1d8:	40 08       	shll2	r0

000001da <___interrupt_handler79>:
 1da:	e0 4f       	mov	#79,r0
 1dc:	a2 10       	bra	600 <___trampoline>
 1de:	40 08       	shll2	r0

000001e0 <___interrupt_handler80>:
 1e0:	e0 50       	mov	#80,r0
 1e2:	a2 0d       	bra	600 <___trampoline>
 1e4:	40 08       	shll2	r0

000001e6 <___interrupt_handler81>:
 1e6:	e0 51       	mov	#81,r0
 1e8:	a2 0a       	bra	600 <___trampoline>
 1ea:	40 08       	shll2	r0

000001ec <___interrupt_handler82>:
 1ec:	e0 52       	mov	#82,r0
 1ee:	a2 07       	bra	600 <___trampoline>
 1f0:	40 08       	shll2	r0

000001f2 <___interrupt_handler83>:
 1f2:	e0 53       	mov	#83,r0
 1f4:	a2 04       	bra	600 <___trampoline>
 1f6:	40 08       	shll2	r0

000001f8 <___interrupt_handler84>:
 1f8:	e0 54       	mov	#84,r0
 1fa:	a2 01       	bra	600 <___trampoline>
 1fc:	40 08       	shll2	r0

000001fe <___interrupt_handler85>:
 1fe:	e0 55       	mov	#85,r0
 200:	a1 fe       	bra	600 <___trampoline>
 202:	40 08       	shll2	r0

00000204 <___interrupt_handler86>:
 204:	e0 56       	mov	#86,r0
 206:	a1 fb       	bra	600 <___trampoline>
 208:	40 08       	shll2	r0

0000020a <___interrupt_handler87>:
 20a:	e0 57       	mov	#87,r0
 20c:	a1 f8       	bra	600 <___trampoline>
 20e:	40 08       	shll2	r0

00000210 <___interrupt_handler88>:
 210:	e0 58       	mov	#88,r0
 212:	a1 f5       	bra	600 <___trampoline>
 214:	40 08       	shll2	r0

00000216 <___interrupt_handler89>:
 216:	e0 59       	mov	#89,r0
 218:	a1 f2       	bra	600 <___trampoline>
 21a:	40 08       	shll2	r0

0000021c <___interrupt_handler90>:
 21c:	e0 5a       	mov	#90,r0
 21e:	a1 ef       	bra	600 <___trampoline>
 220:	40 08       	shll2	r0

00000222 <___interrupt_handler91>:
 222:	e0 5b       	mov	#91,r0
 224:	a1 ec       	bra	600 <___trampoline>
 226:	40 08       	shll2	r0

00000228 <___interrupt_handler92>:
 228:	e0 5c       	mov	#92,r0
 22a:	a1 e9       	bra	600 <___trampoline>
 22c:	40 08       	shll2	r0

0000022e <___interrupt_handler93>:
 22e:	e0 5d       	mov	#93,r0
 230:	a1 e6       	bra	600 <___trampoline>
 232:	40 08       	shll2	r0

00000234 <___interrupt_handler94>:
 234:	e0 5e       	mov	#94,r0
 236:	a1 e3       	bra	600 <___trampoline>
 238:	40 08       	shll2	r0

0000023a <___interrupt_handler95>:
 23a:	e0 5f       	mov	#95,r0
 23c:	a1 e0       	bra	600 <___trampoline>
 23e:	40 08       	shll2	r0

00000240 <___interrupt_handler96>:
 240:	e0 60       	mov	#96,r0
 242:	a1 dd       	bra	600 <___trampoline>
 244:	40 08       	shll2	r0

00000246 <___interrupt_handler97>:
 246:	e0 61       	mov	#97,r0
 248:	a1 da       	bra	600 <___trampoline>
 24a:	40 08       	shll2	r0

0000024c <___interrupt_handler98>:
 24c:	e0 62       	mov	#98,r0
 24e:	a1 d7       	bra	600 <___trampoline>
 250:	40 08       	shll2	r0

00000252 <___interrupt_handler99>:
 252:	e0 63       	mov	#99,r0
 254:	a1 d4       	bra	600 <___trampoline>
 256:	40 08       	shll2	r0

00000258 <___interrupt_handler100>:
 258:	e0 64       	mov	#100,r0
 25a:	a1 d1       	bra	600 <___trampoline>
 25c:	40 08       	shll2	r0

0000025e <___interrupt_handler101>:
 25e:	e0 65       	mov	#101,r0
 260:	a1 ce       	bra	600 <___trampoline>
 262:	40 08       	shll2	r0

00000264 <___interrupt_handler102>:
 264:	e0 66       	mov	#102,r0
 266:	a1 cb       	bra	600 <___trampoline>
 268:	40 08       	shll2	r0

0000026a <___interrupt_handler103>:
 26a:	e0 67       	mov	#103,r0
 26c:	a1 c8       	bra	600 <___trampoline>
 26e:	40 08       	shll2	r0

00000270 <___interrupt_handler104>:
 270:	e0 68       	mov	#104,r0
 272:	a1 c5       	bra	600 <___trampoline>
 274:	40 08       	shll2	r0

00000276 <___interrupt_handler105>:
 276:	e0 69       	mov	#105,r0
 278:	a1 c2       	bra	600 <___trampoline>
 27a:	40 08       	shll2	r0

0000027c <___interrupt_handler106>:
 27c:	e0 6a       	mov	#106,r0
 27e:	a1 bf       	bra	600 <___trampoline>
 280:	40 08       	shll2	r0

00000282 <___interrupt_handler107>:
 282:	e0 6b       	mov	#107,r0
 284:	a1 bc       	bra	600 <___trampoline>
 286:	40 08       	shll2	r0

00000288 <___interrupt_handler108>:
 288:	e0 6c       	mov	#108,r0
 28a:	a1 b9       	bra	600 <___trampoline>
 28c:	40 08       	shll2	r0

0000028e <___interrupt_handler109>:
 28e:	e0 6d       	mov	#109,r0
 290:	a1 b6       	bra	600 <___trampoline>
 292:	40 08       	shll2	r0

00000294 <___interrupt_handler110>:
 294:	e0 6e       	mov	#110,r0
 296:	a1 b3       	bra	600 <___trampoline>
 298:	40 08       	shll2	r0

0000029a <___interrupt_handler111>:
 29a:	e0 6f       	mov	#111,r0
 29c:	a1 b0       	bra	600 <___trampoline>
 29e:	40 08       	shll2	r0

000002a0 <___interrupt_handler112>:
 2a0:	e0 70       	mov	#112,r0
 2a2:	a1 ad       	bra	600 <___trampoline>
 2a4:	40 08       	shll2	r0

000002a6 <___interrupt_handler113>:
 2a6:	e0 71       	mov	#113,r0
 2a8:	a1 aa       	bra	600 <___trampoline>
 2aa:	40 08       	shll2	r0

000002ac <___interrupt_handler114>:
 2ac:	e0 72       	mov	#114,r0
 2ae:	a1 a7       	bra	600 <___trampoline>
 2b0:	40 08       	shll2	r0

000002b2 <___interrupt_handler115>:
 2b2:	e0 73       	mov	#115,r0
 2b4:	a1 a4       	bra	600 <___trampoline>
 2b6:	40 08       	shll2	r0

000002b8 <___interrupt_handler116>:
 2b8:	e0 74       	mov	#116,r0
 2ba:	a1 a1       	bra	600 <___trampoline>
 2bc:	40 08       	shll2	r0

000002be <___interrupt_handler117>:
 2be:	e0 75       	mov	#117,r0
 2c0:	a1 9e       	bra	600 <___trampoline>
 2c2:	40 08       	shll2	r0

000002c4 <___interrupt_handler118>:
 2c4:	e0 76       	mov	#118,r0
 2c6:	a1 9b       	bra	600 <___trampoline>
 2c8:	40 08       	shll2	r0

000002ca <___interrupt_handler119>:
 2ca:	e0 77       	mov	#119,r0
 2cc:	a1 98       	bra	600 <___trampoline>
 2ce:	40 08       	shll2	r0

000002d0 <___interrupt_handler120>:
 2d0:	e0 78       	mov	#120,r0
 2d2:	a1 95       	bra	600 <___trampoline>
 2d4:	40 08       	shll2	r0

000002d6 <___interrupt_handler121>:
 2d6:	e0 79       	mov	#121,r0
 2d8:	a1 92       	bra	600 <___trampoline>
 2da:	40 08       	shll2	r0

000002dc <___interrupt_handler122>:
 2dc:	e0 7a       	mov	#122,r0
 2de:	a1 8f       	bra	600 <___trampoline>
 2e0:	40 08       	shll2	r0

000002e2 <___interrupt_handler123>:
 2e2:	e0 7b       	mov	#123,r0
 2e4:	a1 8c       	bra	600 <___trampoline>
 2e6:	40 08       	shll2	r0

000002e8 <___interrupt_handler124>:
 2e8:	e0 7c       	mov	#124,r0
 2ea:	a1 89       	bra	600 <___trampoline>
 2ec:	40 08       	shll2	r0

000002ee <___interrupt_handler125>:
 2ee:	e0 7d       	mov	#125,r0
 2f0:	a1 86       	bra	600 <___trampoline>
 2f2:	40 08       	shll2	r0

000002f4 <___interrupt_handler126>:
 2f4:	e0 7e       	mov	#126,r0
 2f6:	a1 83       	bra	600 <___trampoline>
 2f8:	40 08       	shll2	r0

000002fa <___interrupt_handler127>:
 2fa:	e0 7f       	mov	#127,r0
 2fc:	a1 80       	bra	600 <___trampoline>
 2fe:	40 08       	shll2	r0

00000300 <___interrupt_handler128>:
 300:	e0 80       	mov	#-128,r0
 302:	a1 7d       	bra	600 <___trampoline>
 304:	40 08       	shll2	r0

00000306 <___interrupt_handler129>:
 306:	e0 81       	mov	#-127,r0
 308:	a1 7a       	bra	600 <___trampoline>
 30a:	40 08       	shll2	r0

0000030c <___interrupt_handler130>:
 30c:	e0 82       	mov	#-126,r0
 30e:	a1 77       	bra	600 <___trampoline>
 310:	40 08       	shll2	r0

00000312 <___interrupt_handler131>:
 312:	e0 83       	mov	#-125,r0
 314:	a1 74       	bra	600 <___trampoline>
 316:	40 08       	shll2	r0

00000318 <___interrupt_handler132>:
 318:	e0 84       	mov	#-124,r0
 31a:	a1 71       	bra	600 <___trampoline>
 31c:	40 08       	shll2	r0

0000031e <___interrupt_handler133>:
 31e:	e0 85       	mov	#-123,r0
 320:	a1 6e       	bra	600 <___trampoline>
 322:	40 08       	shll2	r0

00000324 <___interrupt_handler134>:
 324:	e0 86       	mov	#-122,r0
 326:	a1 6b       	bra	600 <___trampoline>
 328:	40 08       	shll2	r0

0000032a <___interrupt_handler135>:
 32a:	e0 87       	mov	#-121,r0
 32c:	a1 68       	bra	600 <___trampoline>
 32e:	40 08       	shll2	r0

00000330 <___interrupt_handler136>:
 330:	e0 88       	mov	#-120,r0
 332:	a1 65       	bra	600 <___trampoline>
 334:	40 08       	shll2	r0

00000336 <___interrupt_handler137>:
 336:	e0 89       	mov	#-119,r0
 338:	a1 62       	bra	600 <___trampoline>
 33a:	40 08       	shll2	r0

0000033c <___interrupt_handler138>:
 33c:	e0 8a       	mov	#-118,r0
 33e:	a1 5f       	bra	600 <___trampoline>
 340:	40 08       	shll2	r0

00000342 <___interrupt_handler139>:
 342:	e0 8b       	mov	#-117,r0
 344:	a1 5c       	bra	600 <___trampoline>
 346:	40 08       	shll2	r0

00000348 <___interrupt_handler140>:
 348:	e0 8c       	mov	#-116,r0
 34a:	a1 59       	bra	600 <___trampoline>
 34c:	40 08       	shll2	r0

0000034e <___interrupt_handler141>:
 34e:	e0 8d       	mov	#-115,r0
 350:	a1 56       	bra	600 <___trampoline>
 352:	40 08       	shll2	r0

00000354 <___interrupt_handler142>:
 354:	e0 8e       	mov	#-114,r0
 356:	a1 53       	bra	600 <___trampoline>
 358:	40 08       	shll2	r0

0000035a <___interrupt_handler143>:
 35a:	e0 8f       	mov	#-113,r0
 35c:	a1 50       	bra	600 <___trampoline>
 35e:	40 08       	shll2	r0

00000360 <___interrupt_handler144>:
 360:	e0 90       	mov	#-112,r0
 362:	a1 4d       	bra	600 <___trampoline>
 364:	40 08       	shll2	r0

00000366 <___interrupt_handler145>:
 366:	e0 91       	mov	#-111,r0
 368:	a1 4a       	bra	600 <___trampoline>
 36a:	40 08       	shll2	r0

0000036c <___interrupt_handler146>:
 36c:	e0 92       	mov	#-110,r0
 36e:	a1 47       	bra	600 <___trampoline>
 370:	40 08       	shll2	r0

00000372 <___interrupt_handler147>:
 372:	e0 93       	mov	#-109,r0
 374:	a1 44       	bra	600 <___trampoline>
 376:	40 08       	shll2	r0

00000378 <___interrupt_handler148>:
 378:	e0 94       	mov	#-108,r0
 37a:	a1 41       	bra	600 <___trampoline>
 37c:	40 08       	shll2	r0

0000037e <___interrupt_handler149>:
 37e:	e0 95       	mov	#-107,r0
 380:	a1 3e       	bra	600 <___trampoline>
 382:	40 08       	shll2	r0

00000384 <___interrupt_handler150>:
 384:	e0 96       	mov	#-106,r0
 386:	a1 3b       	bra	600 <___trampoline>
 388:	40 08       	shll2	r0

0000038a <___interrupt_handler151>:
 38a:	e0 97       	mov	#-105,r0
 38c:	a1 38       	bra	600 <___trampoline>
 38e:	40 08       	shll2	r0

00000390 <___interrupt_handler152>:
 390:	e0 98       	mov	#-104,r0
 392:	a1 35       	bra	600 <___trampoline>
 394:	40 08       	shll2	r0

00000396 <___interrupt_handler153>:
 396:	e0 99       	mov	#-103,r0
 398:	a1 32       	bra	600 <___trampoline>
 39a:	40 08       	shll2	r0

0000039c <___interrupt_handler154>:
 39c:	e0 9a       	mov	#-102,r0
 39e:	a1 2f       	bra	600 <___trampoline>
 3a0:	40 08       	shll2	r0

000003a2 <___interrupt_handler155>:
 3a2:	e0 9b       	mov	#-101,r0
 3a4:	a1 2c       	bra	600 <___trampoline>
 3a6:	40 08       	shll2	r0

000003a8 <___interrupt_handler156>:
 3a8:	e0 9c       	mov	#-100,r0
 3aa:	a1 29       	bra	600 <___trampoline>
 3ac:	40 08       	shll2	r0

000003ae <___interrupt_handler157>:
 3ae:	e0 9d       	mov	#-99,r0
 3b0:	a1 26       	bra	600 <___trampoline>
 3b2:	40 08       	shll2	r0

000003b4 <___interrupt_handler158>:
 3b4:	e0 9e       	mov	#-98,r0
 3b6:	a1 23       	bra	600 <___trampoline>
 3b8:	40 08       	shll2	r0

000003ba <___interrupt_handler159>:
 3ba:	e0 9f       	mov	#-97,r0
 3bc:	a1 20       	bra	600 <___trampoline>
 3be:	40 08       	shll2	r0

000003c0 <___interrupt_handler160>:
 3c0:	e0 a0       	mov	#-96,r0
 3c2:	a1 1d       	bra	600 <___trampoline>
 3c4:	40 08       	shll2	r0

000003c6 <___interrupt_handler161>:
 3c6:	e0 a1       	mov	#-95,r0
 3c8:	a1 1a       	bra	600 <___trampoline>
 3ca:	40 08       	shll2	r0

000003cc <___interrupt_handler162>:
 3cc:	e0 a2       	mov	#-94,r0
 3ce:	a1 17       	bra	600 <___trampoline>
 3d0:	40 08       	shll2	r0

000003d2 <___interrupt_handler163>:
 3d2:	e0 a3       	mov	#-93,r0
 3d4:	a1 14       	bra	600 <___trampoline>
 3d6:	40 08       	shll2	r0

000003d8 <___interrupt_handler164>:
 3d8:	e0 a4       	mov	#-92,r0
 3da:	a1 11       	bra	600 <___trampoline>
 3dc:	40 08       	shll2	r0

000003de <___interrupt_handler165>:
 3de:	e0 a5       	mov	#-91,r0
 3e0:	a1 0e       	bra	600 <___trampoline>
 3e2:	40 08       	shll2	r0

000003e4 <___interrupt_handler166>:
 3e4:	e0 a6       	mov	#-90,r0
 3e6:	a1 0b       	bra	600 <___trampoline>
 3e8:	40 08       	shll2	r0

000003ea <___interrupt_handler167>:
 3ea:	e0 a7       	mov	#-89,r0
 3ec:	a1 08       	bra	600 <___trampoline>
 3ee:	40 08       	shll2	r0

000003f0 <___interrupt_handler168>:
 3f0:	e0 a8       	mov	#-88,r0
 3f2:	a1 05       	bra	600 <___trampoline>
 3f4:	40 08       	shll2	r0

000003f6 <___interrupt_handler169>:
 3f6:	e0 a9       	mov	#-87,r0
 3f8:	a1 02       	bra	600 <___trampoline>
 3fa:	40 08       	shll2	r0

000003fc <___interrupt_handler170>:
 3fc:	e0 aa       	mov	#-86,r0
 3fe:	a0 ff       	bra	600 <___trampoline>
 400:	40 08       	shll2	r0

00000402 <___interrupt_handler171>:
 402:	e0 ab       	mov	#-85,r0
 404:	a0 fc       	bra	600 <___trampoline>
 406:	40 08       	shll2	r0

00000408 <___interrupt_handler172>:
 408:	e0 ac       	mov	#-84,r0
 40a:	a0 f9       	bra	600 <___trampoline>
 40c:	40 08       	shll2	r0

0000040e <___interrupt_handler173>:
 40e:	e0 ad       	mov	#-83,r0
 410:	a0 f6       	bra	600 <___trampoline>
 412:	40 08       	shll2	r0

00000414 <___interrupt_handler174>:
 414:	e0 ae       	mov	#-82,r0
 416:	a0 f3       	bra	600 <___trampoline>
 418:	40 08       	shll2	r0

0000041a <___interrupt_handler175>:
 41a:	e0 af       	mov	#-81,r0
 41c:	a0 f0       	bra	600 <___trampoline>
 41e:	40 08       	shll2	r0

00000420 <___interrupt_handler176>:
 420:	e0 b0       	mov	#-80,r0
 422:	a0 ed       	bra	600 <___trampoline>
 424:	40 08       	shll2	r0

00000426 <___interrupt_handler177>:
 426:	e0 b1       	mov	#-79,r0
 428:	a0 ea       	bra	600 <___trampoline>
 42a:	40 08       	shll2	r0

0000042c <___interrupt_handler178>:
 42c:	e0 b2       	mov	#-78,r0
 42e:	a0 e7       	bra	600 <___trampoline>
 430:	40 08       	shll2	r0

00000432 <___interrupt_handler179>:
 432:	e0 b3       	mov	#-77,r0
 434:	a0 e4       	bra	600 <___trampoline>
 436:	40 08       	shll2	r0

00000438 <___interrupt_handler180>:
 438:	e0 b4       	mov	#-76,r0
 43a:	a0 e1       	bra	600 <___trampoline>
 43c:	40 08       	shll2	r0

0000043e <___interrupt_handler181>:
 43e:	e0 b5       	mov	#-75,r0
 440:	a0 de       	bra	600 <___trampoline>
 442:	40 08       	shll2	r0

00000444 <___interrupt_handler182>:
 444:	e0 b6       	mov	#-74,r0
 446:	a0 db       	bra	600 <___trampoline>
 448:	40 08       	shll2	r0

0000044a <___interrupt_handler183>:
 44a:	e0 b7       	mov	#-73,r0
 44c:	a0 d8       	bra	600 <___trampoline>
 44e:	40 08       	shll2	r0

00000450 <___interrupt_handler184>:
 450:	e0 b8       	mov	#-72,r0
 452:	a0 d5       	bra	600 <___trampoline>
 454:	40 08       	shll2	r0

00000456 <___interrupt_handler185>:
 456:	e0 b9       	mov	#-71,r0
 458:	a0 d2       	bra	600 <___trampoline>
 45a:	40 08       	shll2	r0

0000045c <___interrupt_handler186>:
 45c:	e0 ba       	mov	#-70,r0
 45e:	a0 cf       	bra	600 <___trampoline>
 460:	40 08       	shll2	r0

00000462 <___interrupt_handler187>:
 462:	e0 bb       	mov	#-69,r0
 464:	a0 cc       	bra	600 <___trampoline>
 466:	40 08       	shll2	r0

00000468 <___interrupt_handler188>:
 468:	e0 bc       	mov	#-68,r0
 46a:	a0 c9       	bra	600 <___trampoline>
 46c:	40 08       	shll2	r0

0000046e <___interrupt_handler189>:
 46e:	e0 bd       	mov	#-67,r0
 470:	a0 c6       	bra	600 <___trampoline>
 472:	40 08       	shll2	r0

00000474 <___interrupt_handler190>:
 474:	e0 be       	mov	#-66,r0
 476:	a0 c3       	bra	600 <___trampoline>
 478:	40 08       	shll2	r0

0000047a <___interrupt_handler191>:
 47a:	e0 bf       	mov	#-65,r0
 47c:	a0 c0       	bra	600 <___trampoline>
 47e:	40 08       	shll2	r0

00000480 <___interrupt_handler192>:
 480:	e0 c0       	mov	#-64,r0
 482:	a0 bd       	bra	600 <___trampoline>
 484:	40 08       	shll2	r0

00000486 <___interrupt_handler193>:
 486:	e0 c1       	mov	#-63,r0
 488:	a0 ba       	bra	600 <___trampoline>
 48a:	40 08       	shll2	r0

0000048c <___interrupt_handler194>:
 48c:	e0 c2       	mov	#-62,r0
 48e:	a0 b7       	bra	600 <___trampoline>
 490:	40 08       	shll2	r0

00000492 <___interrupt_handler195>:
 492:	e0 c3       	mov	#-61,r0
 494:	a0 b4       	bra	600 <___trampoline>
 496:	40 08       	shll2	r0

00000498 <___interrupt_handler196>:
 498:	e0 c4       	mov	#-60,r0
 49a:	a0 b1       	bra	600 <___trampoline>
 49c:	40 08       	shll2	r0

0000049e <___interrupt_handler197>:
 49e:	e0 c5       	mov	#-59,r0
 4a0:	a0 ae       	bra	600 <___trampoline>
 4a2:	40 08       	shll2	r0

000004a4 <___interrupt_handler198>:
 4a4:	e0 c6       	mov	#-58,r0
 4a6:	a0 ab       	bra	600 <___trampoline>
 4a8:	40 08       	shll2	r0

000004aa <___interrupt_handler199>:
 4aa:	e0 c7       	mov	#-57,r0
 4ac:	a0 a8       	bra	600 <___trampoline>
 4ae:	40 08       	shll2	r0

000004b0 <___interrupt_handler200>:
 4b0:	e0 c8       	mov	#-56,r0
 4b2:	a0 a5       	bra	600 <___trampoline>
 4b4:	40 08       	shll2	r0

000004b6 <___interrupt_handler201>:
 4b6:	e0 c9       	mov	#-55,r0
 4b8:	a0 a2       	bra	600 <___trampoline>
 4ba:	40 08       	shll2	r0

000004bc <___interrupt_handler202>:
 4bc:	e0 ca       	mov	#-54,r0
 4be:	a0 9f       	bra	600 <___trampoline>
 4c0:	40 08       	shll2	r0

000004c2 <___interrupt_handler203>:
 4c2:	e0 cb       	mov	#-53,r0
 4c4:	a0 9c       	bra	600 <___trampoline>
 4c6:	40 08       	shll2	r0

000004c8 <___interrupt_handler204>:
 4c8:	e0 cc       	mov	#-52,r0
 4ca:	a0 99       	bra	600 <___trampoline>
 4cc:	40 08       	shll2	r0

000004ce <___interrupt_handler205>:
 4ce:	e0 cd       	mov	#-51,r0
 4d0:	a0 96       	bra	600 <___trampoline>
 4d2:	40 08       	shll2	r0

000004d4 <___interrupt_handler206>:
 4d4:	e0 ce       	mov	#-50,r0
 4d6:	a0 93       	bra	600 <___trampoline>
 4d8:	40 08       	shll2	r0

000004da <___interrupt_handler207>:
 4da:	e0 cf       	mov	#-49,r0
 4dc:	a0 90       	bra	600 <___trampoline>
 4de:	40 08       	shll2	r0

000004e0 <___interrupt_handler208>:
 4e0:	e0 d0       	mov	#-48,r0
 4e2:	a0 8d       	bra	600 <___trampoline>
 4e4:	40 08       	shll2	r0

000004e6 <___interrupt_handler209>:
 4e6:	e0 d1       	mov	#-47,r0
 4e8:	a0 8a       	bra	600 <___trampoline>
 4ea:	40 08       	shll2	r0

000004ec <___interrupt_handler210>:
 4ec:	e0 d2       	mov	#-46,r0
 4ee:	a0 87       	bra	600 <___trampoline>
 4f0:	40 08       	shll2	r0

000004f2 <___interrupt_handler211>:
 4f2:	e0 d3       	mov	#-45,r0
 4f4:	a0 84       	bra	600 <___trampoline>
 4f6:	40 08       	shll2	r0

000004f8 <___interrupt_handler212>:
 4f8:	e0 d4       	mov	#-44,r0
 4fa:	a0 81       	bra	600 <___trampoline>
 4fc:	40 08       	shll2	r0

000004fe <___interrupt_handler213>:
 4fe:	e0 d5       	mov	#-43,r0
 500:	a0 7e       	bra	600 <___trampoline>
 502:	40 08       	shll2	r0

00000504 <___interrupt_handler214>:
 504:	e0 d6       	mov	#-42,r0
 506:	a0 7b       	bra	600 <___trampoline>
 508:	40 08       	shll2	r0

0000050a <___interrupt_handler215>:
 50a:	e0 d7       	mov	#-41,r0
 50c:	a0 78       	bra	600 <___trampoline>
 50e:	40 08       	shll2	r0

00000510 <___interrupt_handler216>:
 510:	e0 d8       	mov	#-40,r0
 512:	a0 75       	bra	600 <___trampoline>
 514:	40 08       	shll2	r0

00000516 <___interrupt_handler217>:
 516:	e0 d9       	mov	#-39,r0
 518:	a0 72       	bra	600 <___trampoline>
 51a:	40 08       	shll2	r0

0000051c <___interrupt_handler218>:
 51c:	e0 da       	mov	#-38,r0
 51e:	a0 6f       	bra	600 <___trampoline>
 520:	40 08       	shll2	r0

00000522 <___interrupt_handler219>:
 522:	e0 db       	mov	#-37,r0
 524:	a0 6c       	bra	600 <___trampoline>
 526:	40 08       	shll2	r0

00000528 <___interrupt_handler220>:
 528:	e0 dc       	mov	#-36,r0
 52a:	a0 69       	bra	600 <___trampoline>
 52c:	40 08       	shll2	r0

0000052e <___interrupt_handler221>:
 52e:	e0 dd       	mov	#-35,r0
 530:	a0 66       	bra	600 <___trampoline>
 532:	40 08       	shll2	r0

00000534 <___interrupt_handler222>:
 534:	e0 de       	mov	#-34,r0
 536:	a0 63       	bra	600 <___trampoline>
 538:	40 08       	shll2	r0

0000053a <___interrupt_handler223>:
 53a:	e0 df       	mov	#-33,r0
 53c:	a0 60       	bra	600 <___trampoline>
 53e:	40 08       	shll2	r0

00000540 <___interrupt_handler224>:
 540:	e0 e0       	mov	#-32,r0
 542:	a0 5d       	bra	600 <___trampoline>
 544:	40 08       	shll2	r0

00000546 <___interrupt_handler225>:
 546:	e0 e1       	mov	#-31,r0
 548:	a0 5a       	bra	600 <___trampoline>
 54a:	40 08       	shll2	r0

0000054c <___interrupt_handler226>:
 54c:	e0 e2       	mov	#-30,r0
 54e:	a0 57       	bra	600 <___trampoline>
 550:	40 08       	shll2	r0

00000552 <___interrupt_handler227>:
 552:	e0 e3       	mov	#-29,r0
 554:	a0 54       	bra	600 <___trampoline>
 556:	40 08       	shll2	r0

00000558 <___interrupt_handler228>:
 558:	e0 e4       	mov	#-28,r0
 55a:	a0 51       	bra	600 <___trampoline>
 55c:	40 08       	shll2	r0

0000055e <___interrupt_handler229>:
 55e:	e0 e5       	mov	#-27,r0
 560:	a0 4e       	bra	600 <___trampoline>
 562:	40 08       	shll2	r0

00000564 <___interrupt_handler230>:
 564:	e0 e6       	mov	#-26,r0
 566:	a0 4b       	bra	600 <___trampoline>
 568:	40 08       	shll2	r0

0000056a <___interrupt_handler231>:
 56a:	e0 e7       	mov	#-25,r0
 56c:	a0 48       	bra	600 <___trampoline>
 56e:	40 08       	shll2	r0

00000570 <___interrupt_handler232>:
 570:	e0 e8       	mov	#-24,r0
 572:	a0 45       	bra	600 <___trampoline>
 574:	40 08       	shll2	r0

00000576 <___interrupt_handler233>:
 576:	e0 e9       	mov	#-23,r0
 578:	a0 42       	bra	600 <___trampoline>
 57a:	40 08       	shll2	r0

0000057c <___interrupt_handler234>:
 57c:	e0 ea       	mov	#-22,r0
 57e:	a0 3f       	bra	600 <___trampoline>
 580:	40 08       	shll2	r0

00000582 <___interrupt_handler235>:
 582:	e0 eb       	mov	#-21,r0
 584:	a0 3c       	bra	600 <___trampoline>
 586:	40 08       	shll2	r0

00000588 <___interrupt_handler236>:
 588:	e0 ec       	mov	#-20,r0
 58a:	a0 39       	bra	600 <___trampoline>
 58c:	40 08       	shll2	r0

0000058e <___interrupt_handler237>:
 58e:	e0 ed       	mov	#-19,r0
 590:	a0 36       	bra	600 <___trampoline>
 592:	40 08       	shll2	r0

00000594 <___interrupt_handler238>:
 594:	e0 ee       	mov	#-18,r0
 596:	a0 33       	bra	600 <___trampoline>
 598:	40 08       	shll2	r0

0000059a <___interrupt_handler239>:
 59a:	e0 ef       	mov	#-17,r0
 59c:	a0 30       	bra	600 <___trampoline>
 59e:	40 08       	shll2	r0

000005a0 <___interrupt_handler240>:
 5a0:	e0 f0       	mov	#-16,r0
 5a2:	a0 2d       	bra	600 <___trampoline>
 5a4:	40 08       	shll2	r0

000005a6 <___interrupt_handler241>:
 5a6:	e0 f1       	mov	#-15,r0
 5a8:	a0 2a       	bra	600 <___trampoline>
 5aa:	40 08       	shll2	r0

000005ac <___interrupt_handler242>:
 5ac:	e0 f2       	mov	#-14,r0
 5ae:	a0 27       	bra	600 <___trampoline>
 5b0:	40 08       	shll2	r0

000005b2 <___interrupt_handler243>:
 5b2:	e0 f3       	mov	#-13,r0
 5b4:	a0 24       	bra	600 <___trampoline>
 5b6:	40 08       	shll2	r0

000005b8 <___interrupt_handler244>:
 5b8:	e0 f4       	mov	#-12,r0
 5ba:	a0 21       	bra	600 <___trampoline>
 5bc:	40 08       	shll2	r0

000005be <___interrupt_handler245>:
 5be:	e0 f5       	mov	#-11,r0
 5c0:	a0 1e       	bra	600 <___trampoline>
 5c2:	40 08       	shll2	r0

000005c4 <___interrupt_handler246>:
 5c4:	e0 f6       	mov	#-10,r0
 5c6:	a0 1b       	bra	600 <___trampoline>
 5c8:	40 08       	shll2	r0

000005ca <___interrupt_handler247>:
 5ca:	e0 f7       	mov	#-9,r0
 5cc:	a0 18       	bra	600 <___trampoline>
 5ce:	40 08       	shll2	r0

000005d0 <___interrupt_handler248>:
 5d0:	e0 f8       	mov	#-8,r0
 5d2:	a0 15       	bra	600 <___trampoline>
 5d4:	40 08       	shll2	r0

000005d6 <___interrupt_handler249>:
 5d6:	e0 f9       	mov	#-7,r0
 5d8:	a0 12       	bra	600 <___trampoline>
 5da:	40 08       	shll2	r0

000005dc <___interrupt_handler250>:
 5dc:	e0 fa       	mov	#-6,r0
 5de:	a0 0f       	bra	600 <___trampoline>
 5e0:	40 08       	shll2	r0

000005e2 <___interrupt_handler251>:
 5e2:	e0 fb       	mov	#-5,r0
 5e4:	a0 0c       	bra	600 <___trampoline>
 5e6:	40 08       	shll2	r0

000005e8 <___interrupt_handler252>:
 5e8:	e0 fc       	mov	#-4,r0
 5ea:	a0 09       	bra	600 <___trampoline>
 5ec:	40 08       	shll2	r0

000005ee <___interrupt_handler253>:
 5ee:	e0 fd       	mov	#-3,r0
 5f0:	a0 06       	bra	600 <___trampoline>
 5f2:	40 08       	shll2	r0

000005f4 <___interrupt_handler254>:
 5f4:	e0 fe       	mov	#-2,r0
 5f6:	a0 03       	bra	600 <___trampoline>
 5f8:	40 08       	shll2	r0

000005fa <___interrupt_handler255>:
 5fa:	e0 ff       	mov	#-1,r0
 5fc:	a0 00       	bra	600 <___trampoline>
 5fe:	40 08       	shll2	r0

00000600 <___trampoline>:
 600:	d1 07       	mov.l	620 <IMM_LABEL0>,r1	! 0 <___interrupt_handler0>
 602:	02 1e       	mov.l	@(r0,r1),r2
 604:	22 28       	tst	r2,r2
 606:	89 07       	bt	618 <___trampoline+0x18>
 608:	4f 12       	sts.l	macl,@-r15
 60a:	4f 02       	sts.l	mach,@-r15
 60c:	4f 22       	sts.l	pr,@-r15
 60e:	42 0b       	jsr	@r2
 610:	00 09       	nop	
 612:	4f 26       	lds.l	@r15+,pr
 614:	4f 06       	lds.l	@r15+,mach
 616:	4f 16       	lds.l	@r15+,macl
 618:	00 0b       	rts	
 61a:	00 09       	nop	
 61c:	00 00       	.word 0x0000
	...

00000620 <IMM_LABEL0>:
 620:	00 00       	.word 0x0000
	...
